target datalayout = "e-m:e-p270:32:32-p271:32:32-p272:64:64-i64:64-i128:128-f80:128-n8:16:32:64-S128"
target triple = "x86_64-pc-linux-gnu"

%"class.std::__cxx11::basic_string" = type { %"struct.std::__cxx11::basic_string<char>::_Alloc_hider", i64, %union.anon }
%"struct.std::__cxx11::basic_string<char>::_Alloc_hider" = type { ptr }
%union.anon = type { i64, [8 x i8] }
%"class.gmx::TextReader" = type { %"class.std::unique_ptr.2" }
%"class.std::unique_ptr.2" = type { %"struct.std::__uniq_ptr_data.3" }
%"struct.std::__uniq_ptr_data.3" = type { %"class.std::__uniq_ptr_impl.4" }
%"class.std::__uniq_ptr_impl.4" = type { %"class.std::tuple.5" }
%"class.std::tuple.5" = type { %"struct.std::_Tuple_impl.6" }
%"struct.std::_Tuple_impl.6" = type { %"struct.std::_Head_base.9" }
%"struct.std::_Head_base.9" = type { ptr }
%"class.gmx::TextReader::Impl" = type <{ %"class.std::shared_ptr", i8, i8, i8, i8, [4 x i8] }>
%"class.std::shared_ptr" = type { %"class.std::__shared_ptr" }
%"class.std::__shared_ptr" = type { ptr, %"class.std::__shared_count" }
%"class.std::__shared_count" = type { ptr }

@__const._ZN3gmx10TextReader8readLineEPNSt7__cxx1112basic_stringIcSt11char_traitsIcESaIcEEE.whiteSpaceChars = private unnamed_addr constant [5 x i8] c" \09\0D\0A\00", align 1

; Function Attrs: mustprogress nounwind uwtable
define linkonce_odr noundef nonnull align 8 dereferenceable(8) ptr @_ZNSt10_Head_baseILm0EPN3gmx10TextReader4ImplELb0EE7_M_headERKS4_(ptr noundef nonnull align 8 dereferenceable(8) %0) #1 comdat align 2 {
  %2 = alloca ptr, align 8
  store ptr %0, ptr %2, align 8
  %3 = load ptr, ptr %2, align 8
  %4 = getelementptr inbounds %"struct.std::_Head_base.9", ptr %3, i32 0, i32 0
  ret ptr %4
}

; Function Attrs: mustprogress nounwind uwtable
define linkonce_odr noundef nonnull align 8 dereferenceable(8) ptr @_ZNSt11_Tuple_implILm0EJPN3gmx10TextReader4ImplESt14default_deleteIS2_EEE7_M_headERKS6_(ptr noundef nonnull align 8 dereferenceable(8) %0) #1 comdat align 2 {
  %2 = alloca ptr, align 8
  store ptr %0, ptr %2, align 8
  %3 = load ptr, ptr %2, align 8
  %4 = call noundef nonnull align 8 dereferenceable(8) ptr @_ZNSt10_Head_baseILm0EPN3gmx10TextReader4ImplELb0EE7_M_headERKS4_(ptr noundef nonnull align 8 dereferenceable(8) %3) #10
  ret ptr %4
}

; Function Attrs: mustprogress nounwind uwtable
define linkonce_odr noundef nonnull align 8 dereferenceable(8) ptr @_ZSt12__get_helperILm0EPN3gmx10TextReader4ImplEJSt14default_deleteIS2_EEERKT0_RKSt11_Tuple_implIXT_EJS6_DpT1_EE(ptr noundef nonnull align 8 dereferenceable(8) %0) #1 comdat {
  %2 = alloca ptr, align 8
  store ptr %0, ptr %2, align 8
  %3 = load ptr, ptr %2, align 8
  %4 = call noundef nonnull align 8 dereferenceable(8) ptr @_ZNSt11_Tuple_implILm0EJPN3gmx10TextReader4ImplESt14default_deleteIS2_EEE7_M_headERKS6_(ptr noundef nonnull align 8 dereferenceable(8) %3) #10
  ret ptr %4
}

; Function Attrs: mustprogress nounwind uwtable
define linkonce_odr noundef nonnull align 8 dereferenceable(8) ptr @_ZSt3getILm0EJPN3gmx10TextReader4ImplESt14default_deleteIS2_EEERKNSt13tuple_elementIXT_ESt5tupleIJDpT0_EEE4typeERKSA_(ptr noundef nonnull align 8 dereferenceable(8) %0) #1 comdat {
  %2 = alloca ptr, align 8
  store ptr %0, ptr %2, align 8
  %3 = load ptr, ptr %2, align 8
  %4 = call noundef nonnull align 8 dereferenceable(8) ptr @_ZSt12__get_helperILm0EPN3gmx10TextReader4ImplEJSt14default_deleteIS2_EEERKT0_RKSt11_Tuple_implIXT_EJS6_DpT1_EE(ptr noundef nonnull align 8 dereferenceable(8) %3) #10
  ret ptr %4
}

; Function Attrs: mustprogress nounwind uwtable
define linkonce_odr noundef ptr @_ZNKSt12__shared_ptrIN3gmx15TextInputStreamELN9__gnu_cxx12_Lock_policyE2EE3getEv(ptr noundef nonnull align 8 dereferenceable(16) %0) #1 comdat align 2 {
  %2 = alloca ptr, align 8
  store ptr %0, ptr %2, align 8
  %3 = load ptr, ptr %2, align 8
  %4 = getelementptr inbounds %"class.std::__shared_ptr", ptr %3, i32 0, i32 0
  %5 = load ptr, ptr %4, align 8
  ret ptr %5
}

; Function Attrs: mustprogress nounwind uwtable
define linkonce_odr noundef ptr @_ZNKSt15__uniq_ptr_implIN3gmx10TextReader4ImplESt14default_deleteIS2_EE6_M_ptrEv(ptr noundef nonnull align 8 dereferenceable(8) %0) #1 comdat align 2 {
  %2 = alloca ptr, align 8
  store ptr %0, ptr %2, align 8
  %3 = load ptr, ptr %2, align 8
  %4 = getelementptr inbounds %"class.std::__uniq_ptr_impl.4", ptr %3, i32 0, i32 0
  %5 = call noundef nonnull align 8 dereferenceable(8) ptr @_ZSt3getILm0EJPN3gmx10TextReader4ImplESt14default_deleteIS2_EEERKNSt13tuple_elementIXT_ESt5tupleIJDpT0_EEE4typeERKSA_(ptr noundef nonnull align 8 dereferenceable(8) %4) #10
  %6 = load ptr, ptr %5, align 8
  ret ptr %6
}

; Function Attrs: mustprogress nounwind uwtable
define linkonce_odr noundef ptr @_ZNKSt19__shared_ptr_accessIN3gmx15TextInputStreamELN9__gnu_cxx12_Lock_policyE2ELb0ELb0EE6_M_getEv(ptr noundef nonnull align 1 dereferenceable(1) %0) #1 comdat align 2 {
  %2 = alloca ptr, align 8
  store ptr %0, ptr %2, align 8
  %3 = load ptr, ptr %2, align 8
  %4 = call noundef ptr @_ZNKSt12__shared_ptrIN3gmx15TextInputStreamELN9__gnu_cxx12_Lock_policyE2EE3getEv(ptr noundef nonnull align 8 dereferenceable(16) %3) #10
  ret ptr %4
}

; Function Attrs: mustprogress nounwind uwtable
define linkonce_odr noundef ptr @_ZNKSt10unique_ptrIN3gmx10TextReader4ImplESt14default_deleteIS2_EE3getEv(ptr noundef nonnull align 8 dereferenceable(8) %0) #1 comdat align 2 {
  %2 = alloca ptr, align 8
  store ptr %0, ptr %2, align 8
  %3 = load ptr, ptr %2, align 8
  %4 = getelementptr inbounds %"class.std::unique_ptr.2", ptr %3, i32 0, i32 0
  %5 = call noundef ptr @_ZNKSt15__uniq_ptr_implIN3gmx10TextReader4ImplESt14default_deleteIS2_EE6_M_ptrEv(ptr noundef nonnull align 8 dereferenceable(8) %4) #10
  ret ptr %5
}

; Function Attrs: mustprogress nounwind uwtable
define linkonce_odr noundef ptr @_ZNKSt19__shared_ptr_accessIN3gmx15TextInputStreamELN9__gnu_cxx12_Lock_policyE2ELb0ELb0EEptEv(ptr noundef nonnull align 1 dereferenceable(1) %0) #1 comdat align 2 {
  %2 = alloca ptr, align 8
  store ptr %0, ptr %2, align 8
  %3 = load ptr, ptr %2, align 8
  %4 = call noundef ptr @_ZNKSt19__shared_ptr_accessIN3gmx15TextInputStreamELN9__gnu_cxx12_Lock_policyE2ELb0ELb0EE6_M_getEv(ptr noundef nonnull align 1 dereferenceable(1) %3) #10
  ret ptr %4
}

; Function Attrs: mustprogress nounwind uwtable
define linkonce_odr noundef ptr @_ZNKSt10unique_ptrIN3gmx10TextReader4ImplESt14default_deleteIS2_EEptEv(ptr noundef nonnull align 8 dereferenceable(8) %0) #1 comdat align 2 {
  %2 = alloca ptr, align 8
  store ptr %0, ptr %2, align 8
  %3 = load ptr, ptr %2, align 8
  %4 = call noundef ptr @_ZNKSt10unique_ptrIN3gmx10TextReader4ImplESt14default_deleteIS2_EE3getEv(ptr noundef nonnull align 8 dereferenceable(8) %3) #10
  ret ptr %4
}

; Function Attrs: mustprogress uwtable
define noundef zeroext i1 @_ZN3gmx10TextReader8readLineEPNSt7__cxx1112basic_stringIcSt11char_traitsIcESaIcEEE(ptr noundef nonnull align 8 dereferenceable(8) %0, ptr noundef %1) #0 align 2 {
  %3 = alloca i1, align 1
  %4 = alloca ptr, align 8
  %5 = alloca ptr, align 8
  %6 = alloca ptr, align 8
  %7 = alloca [5 x i8], align 1
  %8 = alloca i64, align 8
  %9 = alloca %"class.std::__cxx11::basic_string", align 8
  %10 = alloca i64, align 8
  %11 = alloca i64, align 8
  store ptr %0, ptr %4, align 8
  store ptr %1, ptr %5, align 8
  %12 = load ptr, ptr %4, align 8
  %13 = getelementptr inbounds %"class.gmx::TextReader", ptr %12, i32 0, i32 0
  %14 = call noundef ptr @_ZNKSt10unique_ptrIN3gmx10TextReader4ImplESt14default_deleteIS2_EEptEv(ptr noundef nonnull align 8 dereferenceable(8) %13) #10
  %15 = getelementptr inbounds %"class.gmx::TextReader::Impl", ptr %14, i32 0, i32 0
  %16 = call noundef ptr @_ZNKSt19__shared_ptr_accessIN3gmx15TextInputStreamELN9__gnu_cxx12_Lock_policyE2ELb0ELb0EEptEv(ptr noundef nonnull align 1 dereferenceable(1) %15) #10
  %17 = load ptr, ptr %5, align 8
  %18 = load ptr, ptr %16, align 8
  %19 = getelementptr inbounds ptr, ptr %18, i64 2
  %20 = load ptr, ptr %19, align 8
  %21 = call noundef zeroext i1 %20(ptr noundef nonnull align 8 dereferenceable(8) %16, ptr noundef %17)
  br i1 %21, label %23, label %22

22:                                               ; preds = %2
  store i1 false, ptr %3, align 1
  br label %83

23:                                               ; preds = %2
  %24 = load ptr, ptr %5, align 8
  store ptr %24, ptr %6, align 8
  call void @llvm.memcpy.p0.p0.i64(ptr align 1 %7, ptr align 1 @__const._ZN3gmx10TextReader8readLineEPNSt7__cxx1112basic_stringIcSt11char_traitsIcESaIcEEE.whiteSpaceChars, i64 5, i1 false)
  %25 = getelementptr inbounds %"class.gmx::TextReader", ptr %12, i32 0, i32 0
  %26 = call noundef ptr @_ZNKSt10unique_ptrIN3gmx10TextReader4ImplESt14default_deleteIS2_EEptEv(ptr noundef nonnull align 8 dereferenceable(8) %25) #10
  %27 = getelementptr inbounds %"class.gmx::TextReader::Impl", ptr %26, i32 0, i32 1
  %28 = load i8, ptr %27, align 8
  %29 = trunc i8 %28 to i1
  br i1 %29, label %30, label %44

30:                                               ; preds = %23
  %31 = load ptr, ptr %6, align 8
  %32 = getelementptr inbounds [5 x i8], ptr %7, i64 0, i64 0
  %33 = call noundef i64 @_ZNKSt7__cxx1112basic_stringIcSt11char_traitsIcESaIcEE17find_first_not_ofEPKcm(ptr noundef nonnull align 8 dereferenceable(32) %31, ptr noundef %32, i64 noundef 0) #10
  store i64 %33, ptr %8, align 8
  %34 = load i64, ptr %8, align 8
  %35 = icmp eq i64 %34, -1
  br i1 %35, label %36, label %38

36:                                               ; preds = %30
  %37 = load ptr, ptr %6, align 8
  call void @_ZNSt7__cxx1112basic_stringIcSt11char_traitsIcESaIcEE6resizeEm(ptr noundef nonnull align 8 dereferenceable(32) %37, i64 noundef 0)
  br label %43

38:                                               ; preds = %30
  %39 = load ptr, ptr %6, align 8
  %40 = load i64, ptr %8, align 8
  call void @_ZNKSt7__cxx1112basic_stringIcSt11char_traitsIcESaIcEE6substrEmm(ptr dead_on_unwind writable sret(%"class.std::__cxx11::basic_string") align 8 %9, ptr noundef nonnull align 8 dereferenceable(32) %39, i64 noundef %40, i64 noundef -1)
  %41 = load ptr, ptr %6, align 8
  %42 = call noundef nonnull align 8 dereferenceable(32) ptr @_ZNSt7__cxx1112basic_stringIcSt11char_traitsIcESaIcEEaSEOS4_(ptr noundef nonnull align 8 dereferenceable(32) %41, ptr noundef nonnull align 8 dereferenceable(32) %9) #10
  call void @_ZNSt7__cxx1112basic_stringIcSt11char_traitsIcESaIcEED1Ev(ptr noundef nonnull align 8 dereferenceable(32) %9) #10
  br label %43

43:                                               ; preds = %38, %36
  br label %44

44:                                               ; preds = %43, %23
  %45 = getelementptr inbounds %"class.gmx::TextReader", ptr %12, i32 0, i32 0
  %46 = call noundef ptr @_ZNKSt10unique_ptrIN3gmx10TextReader4ImplESt14default_deleteIS2_EEptEv(ptr noundef nonnull align 8 dereferenceable(8) %45) #10
  %47 = getelementptr inbounds %"class.gmx::TextReader::Impl", ptr %46, i32 0, i32 3
  %48 = load i8, ptr %47, align 2
  %49 = trunc i8 %48 to i1
  br i1 %49, label %50, label %63

50:                                               ; preds = %44
  %51 = load ptr, ptr %6, align 8
  %52 = getelementptr inbounds %"class.gmx::TextReader", ptr %12, i32 0, i32 0
  %53 = call noundef ptr @_ZNKSt10unique_ptrIN3gmx10TextReader4ImplESt14default_deleteIS2_EEptEv(ptr noundef nonnull align 8 dereferenceable(8) %52) #10
  %54 = getelementptr inbounds %"class.gmx::TextReader::Impl", ptr %53, i32 0, i32 4
  %55 = load i8, ptr %54, align 1
  %56 = call noundef i64 @_ZNKSt7__cxx1112basic_stringIcSt11char_traitsIcESaIcEE4findEcm(ptr noundef nonnull align 8 dereferenceable(32) %51, i8 noundef signext %55, i64 noundef 0) #10
  store i64 %56, ptr %10, align 8
  %57 = load i64, ptr %10, align 8
  %58 = icmp ne i64 %57, -1
  br i1 %58, label %59, label %62

59:                                               ; preds = %50
  %60 = load ptr, ptr %6, align 8
  %61 = load i64, ptr %10, align 8
  call void @_ZNSt7__cxx1112basic_stringIcSt11char_traitsIcESaIcEE6resizeEm(ptr noundef nonnull align 8 dereferenceable(32) %60, i64 noundef %61)
  br label %62

62:                                               ; preds = %59, %50
  br label %63

63:                                               ; preds = %62, %44
  %64 = getelementptr inbounds %"class.gmx::TextReader", ptr %12, i32 0, i32 0
  %65 = call noundef ptr @_ZNKSt10unique_ptrIN3gmx10TextReader4ImplESt14default_deleteIS2_EEptEv(ptr noundef nonnull align 8 dereferenceable(8) %64) #10
  %66 = getelementptr inbounds %"class.gmx::TextReader::Impl", ptr %65, i32 0, i32 2
  %67 = load i8, ptr %66, align 1
  %68 = trunc i8 %67 to i1
  br i1 %68, label %69, label %82

69:                                               ; preds = %63
  %70 = load ptr, ptr %6, align 8
  %71 = getelementptr inbounds [5 x i8], ptr %7, i64 0, i64 0
  %72 = call noundef i64 @_ZNKSt7__cxx1112basic_stringIcSt11char_traitsIcESaIcEE16find_last_not_ofEPKcm(ptr noundef nonnull align 8 dereferenceable(32) %70, ptr noundef %71, i64 noundef -1) #10
  store i64 %72, ptr %11, align 8
  %73 = load i64, ptr %11, align 8
  %74 = icmp eq i64 %73, -1
  br i1 %74, label %75, label %77

75:                                               ; preds = %69
  %76 = load ptr, ptr %6, align 8
  call void @_ZNSt7__cxx1112basic_stringIcSt11char_traitsIcESaIcEE6resizeEm(ptr noundef nonnull align 8 dereferenceable(32) %76, i64 noundef 0)
  br label %81

77:                                               ; preds = %69
  %78 = load ptr, ptr %6, align 8
  %79 = load i64, ptr %11, align 8
  %80 = add i64 %79, 1
  call void @_ZNSt7__cxx1112basic_stringIcSt11char_traitsIcESaIcEE6resizeEm(ptr noundef nonnull align 8 dereferenceable(32) %78, i64 noundef %80)
  br label %81

81:                                               ; preds = %77, %75
  br label %82

82:                                               ; preds = %81, %63
  store i1 true, ptr %3, align 1
  br label %83

83:                                               ; preds = %82, %22
  %84 = load i1, ptr %3, align 1
  ret i1 %84
}